; Function Attrs: mustprogress nofree norecurse nosync nounwind willreturn memory(argmem: write) uwtable
define dso_local void @_ZN3net10QuicConfig19SetMultipathEnabledEb(ptr nocapture noundef nonnull writeonly align 8 dereferenceable(600) %this, i1 noundef zeroext %multipath_enabled) local_unnamed_addr #3 align 2 personality ptr @__gxx_personality_v0 {
entry:
  %cond = zext i1 %multipath_enabled to i32
  %max_value_.i = getelementptr inbounds i8, ptr %this, i64 428
  store i32 %cond, ptr %max_value_.i, align 4
  %default_value_.i = getelementptr inbounds i8, ptr %this, i64 432
  store i32 %cond, ptr %default_value_.i, align 8
  ret void
}